target datalayout = "e-m:e-p270:32:32-p271:32:32-p272:64:64-i64:64-i128:128-f80:128-n8:16:32:64-S128"
target triple = "x86_64-pc-linux-gnu"

%"struct.duckdb::ChildFieldIDs" = type { %"class.duckdb::unique_ptr" }
%"class.duckdb::unique_ptr" = type { %"class.std::unique_ptr" }
%"class.std::unique_ptr" = type { %"struct.std::__uniq_ptr_data" }
%"struct.std::__uniq_ptr_data" = type { %"class.std::__uniq_ptr_impl" }
%"class.std::__uniq_ptr_impl" = type { %"class.std::tuple" }
%"class.std::tuple" = type { %"struct.std::_Tuple_impl" }
%"struct.std::_Tuple_impl" = type { %"struct.std::_Head_base.51" }
%"struct.std::_Head_base.51" = type { ptr }
%"class.duckdb::Serializer" = type { ptr, %"class.duckdb::SerializationOptions", %"struct.duckdb::SerializationData" }
%"class.duckdb::SerializationOptions" = type { i8, i8, [6 x i8], %"class.duckdb::SerializationCompatibility" }
%"class.duckdb::SerializationCompatibility" = type <{ %"class.std::__cxx11::basic_string", i64, i8, [7 x i8] }>
%"class.std::__cxx11::basic_string" = type { %"struct.std::__cxx11::basic_string<char>::_Alloc_hider", i64, %union.anon }
%"struct.std::__cxx11::basic_string<char>::_Alloc_hider" = type { ptr }
%union.anon = type { i64, [8 x i8] }
%"struct.duckdb::SerializationData" = type { %"class.std::stack", %"class.std::stack.3", %"class.std::stack.10", %"class.std::stack.17", %"class.std::stack.24", %"class.std::stack.31", %"class.std::stack.38", %"class.std::unordered_map" }
%"class.std::stack" = type { %"class.std::deque" }
%"class.std::deque" = type { %"class.std::_Deque_base" }
%"class.std::_Deque_base" = type { %"struct.std::_Deque_base<std::reference_wrapper<duckdb::ClientContext>, std::allocator<std::reference_wrapper<duckdb::ClientContext>>>::_Deque_impl" }
%"struct.std::_Deque_base<std::reference_wrapper<duckdb::ClientContext>, std::allocator<std::reference_wrapper<duckdb::ClientContext>>>::_Deque_impl" = type { %"struct.std::_Deque_base<std::reference_wrapper<duckdb::ClientContext>, std::allocator<std::reference_wrapper<duckdb::ClientContext>>>::_Deque_impl_data" }
%"struct.std::_Deque_base<std::reference_wrapper<duckdb::ClientContext>, std::allocator<std::reference_wrapper<duckdb::ClientContext>>>::_Deque_impl_data" = type { ptr, i64, %"struct.std::_Deque_iterator", %"struct.std::_Deque_iterator" }
%"struct.std::_Deque_iterator" = type { ptr, ptr, ptr, ptr }
%"class.std::stack.3" = type { %"class.std::deque.4" }
%"class.std::deque.4" = type { %"class.std::_Deque_base.5" }
%"class.std::_Deque_base.5" = type { %"struct.std::_Deque_base<std::reference_wrapper<duckdb::DatabaseInstance>, std::allocator<std::reference_wrapper<duckdb::DatabaseInstance>>>::_Deque_impl" }
%"struct.std::_Deque_base<std::reference_wrapper<duckdb::DatabaseInstance>, std::allocator<std::reference_wrapper<duckdb::DatabaseInstance>>>::_Deque_impl" = type { %"struct.std::_Deque_base<std::reference_wrapper<duckdb::DatabaseInstance>, std::allocator<std::reference_wrapper<duckdb::DatabaseInstance>>>::_Deque_impl_data" }
%"struct.std::_Deque_base<std::reference_wrapper<duckdb::DatabaseInstance>, std::allocator<std::reference_wrapper<duckdb::DatabaseInstance>>>::_Deque_impl_data" = type { ptr, i64, %"struct.std::_Deque_iterator.9", %"struct.std::_Deque_iterator.9" }
%"struct.std::_Deque_iterator.9" = type { ptr, ptr, ptr, ptr }
%"class.std::stack.10" = type { %"class.std::deque.11" }
%"class.std::deque.11" = type { %"class.std::_Deque_base.12" }
%"class.std::_Deque_base.12" = type { %"struct.std::_Deque_base<std::reference_wrapper<duckdb::Catalog>, std::allocator<std::reference_wrapper<duckdb::Catalog>>>::_Deque_impl" }
%"struct.std::_Deque_base<std::reference_wrapper<duckdb::Catalog>, std::allocator<std::reference_wrapper<duckdb::Catalog>>>::_Deque_impl" = type { %"struct.std::_Deque_base<std::reference_wrapper<duckdb::Catalog>, std::allocator<std::reference_wrapper<duckdb::Catalog>>>::_Deque_impl_data" }
%"struct.std::_Deque_base<std::reference_wrapper<duckdb::Catalog>, std::allocator<std::reference_wrapper<duckdb::Catalog>>>::_Deque_impl_data" = type { ptr, i64, %"struct.std::_Deque_iterator.16", %"struct.std::_Deque_iterator.16" }
%"struct.std::_Deque_iterator.16" = type { ptr, ptr, ptr, ptr }
%"class.std::stack.17" = type { %"class.std::deque.18" }
%"class.std::deque.18" = type { %"class.std::_Deque_base.19" }
%"class.std::_Deque_base.19" = type { %"struct.std::_Deque_base<unsigned long, std::allocator<unsigned long>>::_Deque_impl" }
%"struct.std::_Deque_base<unsigned long, std::allocator<unsigned long>>::_Deque_impl" = type { %"struct.std::_Deque_base<unsigned long, std::allocator<unsigned long>>::_Deque_impl_data" }
%"struct.std::_Deque_base<unsigned long, std::allocator<unsigned long>>::_Deque_impl_data" = type { ptr, i64, %"struct.std::_Deque_iterator.23", %"struct.std::_Deque_iterator.23" }
%"struct.std::_Deque_iterator.23" = type { ptr, ptr, ptr, ptr }
%"class.std::stack.24" = type { %"class.std::deque.25" }
%"class.std::deque.25" = type { %"class.std::_Deque_base.26" }
%"class.std::_Deque_base.26" = type { %"struct.std::_Deque_base<std::reference_wrapper<std::unordered_map<std::__cxx11::basic_string<char>, duckdb::shared_ptr<duckdb::BoundParameterData>, duckdb::CaseInsensitiveStringHashFunction, duckdb::CaseInsensitiveStringEquality>>, std::allocator<std::reference_wrapper<std::unordered_map<std::__cxx11::basic_string<char>, duckdb::shared_ptr<duckdb::BoundParameterData>, duckdb::CaseInsensitiveStringHashFunction, duckdb::CaseInsensitiveStringEquality>>>>::_Deque_impl" }
%"struct.std::_Deque_base<std::reference_wrapper<std::unordered_map<std::__cxx11::basic_string<char>, duckdb::shared_ptr<duckdb::BoundParameterData>, duckdb::CaseInsensitiveStringHashFunction, duckdb::CaseInsensitiveStringEquality>>, std::allocator<std::reference_wrapper<std::unordered_map<std::__cxx11::basic_string<char>, duckdb::shared_ptr<duckdb::BoundParameterData>, duckdb::CaseInsensitiveStringHashFunction, duckdb::CaseInsensitiveStringEquality>>>>::_Deque_impl" = type { %"struct.std::_Deque_base<std::reference_wrapper<std::unordered_map<std::__cxx11::basic_string<char>, duckdb::shared_ptr<duckdb::BoundParameterData>, duckdb::CaseInsensitiveStringHashFunction, duckdb::CaseInsensitiveStringEquality>>, std::allocator<std::reference_wrapper<std::unordered_map<std::__cxx11::basic_string<char>, duckdb::shared_ptr<duckdb::BoundParameterData>, duckdb::CaseInsensitiveStringHashFunction, duckdb::CaseInsensitiveStringEquality>>>>::_Deque_impl_data" }
%"struct.std::_Deque_base<std::reference_wrapper<std::unordered_map<std::__cxx11::basic_string<char>, duckdb::shared_ptr<duckdb::BoundParameterData>, duckdb::CaseInsensitiveStringHashFunction, duckdb::CaseInsensitiveStringEquality>>, std::allocator<std::reference_wrapper<std::unordered_map<std::__cxx11::basic_string<char>, duckdb::shared_ptr<duckdb::BoundParameterData>, duckdb::CaseInsensitiveStringHashFunction, duckdb::CaseInsensitiveStringEquality>>>>::_Deque_impl_data" = type { ptr, i64, %"struct.std::_Deque_iterator.30", %"struct.std::_Deque_iterator.30" }
%"struct.std::_Deque_iterator.30" = type { ptr, ptr, ptr, ptr }
%"class.std::stack.31" = type { %"class.std::deque.32" }
%"class.std::deque.32" = type { %"class.std::_Deque_base.33" }
%"class.std::_Deque_base.33" = type { %"struct.std::_Deque_base<std::reference_wrapper<const duckdb::LogicalType>, std::allocator<std::reference_wrapper<const duckdb::LogicalType>>>::_Deque_impl" }
%"struct.std::_Deque_base<std::reference_wrapper<const duckdb::LogicalType>, std::allocator<std::reference_wrapper<const duckdb::LogicalType>>>::_Deque_impl" = type { %"struct.std::_Deque_base<std::reference_wrapper<const duckdb::LogicalType>, std::allocator<std::reference_wrapper<const duckdb::LogicalType>>>::_Deque_impl_data" }
%"struct.std::_Deque_base<std::reference_wrapper<const duckdb::LogicalType>, std::allocator<std::reference_wrapper<const duckdb::LogicalType>>>::_Deque_impl_data" = type { ptr, i64, %"struct.std::_Deque_iterator.37", %"struct.std::_Deque_iterator.37" }
%"struct.std::_Deque_iterator.37" = type { ptr, ptr, ptr, ptr }
%"class.std::stack.38" = type { %"class.std::deque.39" }
%"class.std::deque.39" = type { %"class.std::_Deque_base.40" }
%"class.std::_Deque_base.40" = type { %"struct.std::_Deque_base<std::reference_wrapper<const duckdb::CompressionInfo>, std::allocator<std::reference_wrapper<const duckdb::CompressionInfo>>>::_Deque_impl" }
%"struct.std::_Deque_base<std::reference_wrapper<const duckdb::CompressionInfo>, std::allocator<std::reference_wrapper<const duckdb::CompressionInfo>>>::_Deque_impl" = type { %"struct.std::_Deque_base<std::reference_wrapper<const duckdb::CompressionInfo>, std::allocator<std::reference_wrapper<const duckdb::CompressionInfo>>>::_Deque_impl_data" }
%"struct.std::_Deque_base<std::reference_wrapper<const duckdb::CompressionInfo>, std::allocator<std::reference_wrapper<const duckdb::CompressionInfo>>>::_Deque_impl_data" = type { ptr, i64, %"struct.std::_Deque_iterator.44", %"struct.std::_Deque_iterator.44" }
%"struct.std::_Deque_iterator.44" = type { ptr, ptr, ptr, ptr }
%"class.std::unordered_map" = type { %"class.std::_Hashtable" }
%"class.std::_Hashtable" = type { ptr, i64, %"struct.std::__detail::_Hash_node_base", i64, %"struct.std::__detail::_Prime_rehash_policy", ptr }
%"struct.std::__detail::_Hash_node_base" = type { ptr }
%"struct.std::__detail::_Prime_rehash_policy" = type { float, i64 }
%"class.std::unordered_map.52" = type { %"class.std::_Hashtable.178" }
%"class.std::_Hashtable.178" = type { ptr, i64, %"struct.std::__detail::_Hash_node_base", i64, %"struct.std::__detail::_Prime_rehash_policy", ptr }

@.str = private unnamed_addr constant [4 x i8] c"ids\00", align 1

; Function Attrs: mustprogress nounwind uwtable
define linkonce_odr noundef i64 @_ZNKSt10_HashtableINSt7__cxx1112basic_stringIcSt11char_traitsIcESaIcEEESt4pairIKS5_N6duckdb7FieldIDEESaISA_ENSt8__detail10_Select1stENS8_29CaseInsensitiveStringEqualityENS8_33CaseInsensitiveStringHashFunctionENSC_18_Mod_range_hashingENSC_20_Default_ranged_hashENSC_20_Prime_rehash_policyENSC_17_Hashtable_traitsILb1ELb0ELb1EEEE4sizeEv(ptr noundef nonnull align 8 dereferenceable(56) %0) #10 comdat align 2 {
  %2 = alloca ptr, align 8
  store ptr %0, ptr %2, align 8, !tbaa !168
  %3 = load ptr, ptr %2, align 8
  %4 = getelementptr inbounds nuw %"class.std::_Hashtable.178", ptr %3, i32 0, i32 3
  %5 = load i64, ptr %4, align 8, !tbaa !173
  ret i64 %5
}

; Function Attrs: mustprogress nounwind uwtable
define linkonce_odr noundef zeroext i1 @_ZNKSt10_HashtableINSt7__cxx1112basic_stringIcSt11char_traitsIcESaIcEEESt4pairIKS5_N6duckdb7FieldIDEESaISA_ENSt8__detail10_Select1stENS8_29CaseInsensitiveStringEqualityENS8_33CaseInsensitiveStringHashFunctionENSC_18_Mod_range_hashingENSC_20_Default_ranged_hashENSC_20_Prime_rehash_policyENSC_17_Hashtable_traitsILb1ELb0ELb1EEEE5emptyEv(ptr noundef nonnull align 8 dereferenceable(56) %0) #10 comdat align 2 {
  %2 = alloca ptr, align 8
  store ptr %0, ptr %2, align 8, !tbaa !168
  %3 = load ptr, ptr %2, align 8
  %4 = call noundef i64 @_ZNKSt10_HashtableINSt7__cxx1112basic_stringIcSt11char_traitsIcESaIcEEESt4pairIKS5_N6duckdb7FieldIDEESaISA_ENSt8__detail10_Select1stENS8_29CaseInsensitiveStringEqualityENS8_33CaseInsensitiveStringHashFunctionENSC_18_Mod_range_hashingENSC_20_Default_ranged_hashENSC_20_Prime_rehash_policyENSC_17_Hashtable_traitsILb1ELb0ELb1EEEE4sizeEv(ptr noundef nonnull align 8 dereferenceable(56) %3) #3
  %5 = icmp eq i64 %4, 0
  ret i1 %5
}

; Function Attrs: mustprogress nounwind uwtable
define linkonce_odr noundef zeroext i1 @_ZNKSt13unordered_mapINSt7__cxx1112basic_stringIcSt11char_traitsIcESaIcEEEN6duckdb7FieldIDENS6_33CaseInsensitiveStringHashFunctionENS6_29CaseInsensitiveStringEqualityESaISt4pairIKS5_S7_EEE5emptyEv(ptr noundef nonnull align 8 dereferenceable(56) %0) #10 comdat align 2 {
  %2 = alloca ptr, align 8
  store ptr %0, ptr %2, align 8, !tbaa !14
  %3 = load ptr, ptr %2, align 8
  %4 = getelementptr inbounds nuw %"class.std::unordered_map.52", ptr %3, i32 0, i32 0
  %5 = call noundef zeroext i1 @_ZNKSt10_HashtableINSt7__cxx1112basic_stringIcSt11char_traitsIcESaIcEEESt4pairIKS5_N6duckdb7FieldIDEESaISA_ENSt8__detail10_Select1stENS8_29CaseInsensitiveStringEqualityENS8_33CaseInsensitiveStringHashFunctionENSC_18_Mod_range_hashingENSC_20_Default_ranged_hashENSC_20_Prime_rehash_policyENSC_17_Hashtable_traitsILb1ELb0ELb1EEEE5emptyEv(ptr noundef nonnull align 8 dereferenceable(56) %4) #3
  ret i1 %5
}

; Function Attrs: inlinehint mustprogress nounwind uwtable
define linkonce_odr noundef zeroext i1 @_ZN6duckdb25SerializationDefaultValue9IsDefaultISt13unordered_mapINSt7__cxx1112basic_stringIcSt11char_traitsIcESaIcEEENS_7FieldIDENS_33CaseInsensitiveStringHashFunctionENS_29CaseInsensitiveStringEqualityESaISt4pairIKS8_S9_EEEEEbRKNSt9enable_ifIXsr16is_unordered_mapIT_EE5valueESI_E4typeE(ptr noundef nonnull align 8 dereferenceable(56) %0) #6 comdat align 2 {
  %2 = alloca ptr, align 8
  store ptr %0, ptr %2, align 8, !tbaa !14
  %3 = load ptr, ptr %2, align 8, !tbaa !14
  %4 = call noundef zeroext i1 @_ZNKSt13unordered_mapINSt7__cxx1112basic_stringIcSt11char_traitsIcESaIcEEEN6duckdb7FieldIDENS6_33CaseInsensitiveStringHashFunctionENS6_29CaseInsensitiveStringEqualityESaISt4pairIKS5_S7_EEE5emptyEv(ptr noundef nonnull align 8 dereferenceable(56) %3) #3
  ret i1 %4
}

; Function Attrs: mustprogress uwtable
define linkonce_odr void @_ZN6duckdb10Serializer24WritePropertyWithDefaultISt13unordered_mapINSt7__cxx1112basic_stringIcSt11char_traitsIcESaIcEEENS_7FieldIDENS_33CaseInsensitiveStringHashFunctionENS_29CaseInsensitiveStringEqualityESaISt4pairIKS8_S9_EEEEEvtPKcRKT_(ptr noundef nonnull align 8 dereferenceable(680) %0, i16 noundef zeroext %1, ptr noundef %2, ptr noundef nonnull align 1 %3) #4 comdat align 2 {
  %5 = alloca ptr, align 8
  %6 = alloca i16, align 2
  %7 = alloca ptr, align 8
  %8 = alloca ptr, align 8
  store ptr %0, ptr %5, align 8, !tbaa !8
  store i16 %1, ptr %6, align 2, !tbaa !10
  store ptr %2, ptr %7, align 8, !tbaa !12
  store ptr %3, ptr %8, align 8, !tbaa !14
  %9 = load ptr, ptr %5, align 8
  %10 = getelementptr inbounds nuw %"class.duckdb::Serializer", ptr %9, i32 0, i32 1
  %11 = getelementptr inbounds nuw %"class.duckdb::SerializationOptions", ptr %10, i32 0, i32 1
  %12 = load i8, ptr %11, align 1, !tbaa !16, !range !88, !noundef !89
  %13 = trunc i8 %12 to i1
  br i1 %13, label %26, label %14

14:                                               ; preds = %4
  %15 = load ptr, ptr %8, align 8, !tbaa !14
  %16 = call noundef zeroext i1 @_ZN6duckdb25SerializationDefaultValue9IsDefaultISt13unordered_mapINSt7__cxx1112basic_stringIcSt11char_traitsIcESaIcEEENS_7FieldIDENS_33CaseInsensitiveStringHashFunctionENS_29CaseInsensitiveStringEqualityESaISt4pairIKS8_S9_EEEEEbRKNSt9enable_ifIXsr16is_unordered_mapIT_EE5valueESI_E4typeE(ptr noundef nonnull align 8 dereferenceable(56) %15)
  br i1 %16, label %17, label %26

17:                                               ; preds = %14
  %18 = load i16, ptr %6, align 2, !tbaa !10
  %19 = load ptr, ptr %7, align 8, !tbaa !12
  %20 = load ptr, ptr %9, align 8, !tbaa !90
  %21 = getelementptr inbounds ptr, ptr %20, i64 4
  %22 = load ptr, ptr %21, align 8
  call void %22(ptr noundef nonnull align 8 dereferenceable(680) %9, i16 noundef zeroext %18, ptr noundef %19, i1 noundef zeroext false)
  %23 = load ptr, ptr %9, align 8, !tbaa !90
  %24 = getelementptr inbounds ptr, ptr %23, i64 5
  %25 = load ptr, ptr %24, align 8
  call void %25(ptr noundef nonnull align 8 dereferenceable(680) %9, i1 noundef zeroext false)
  br label %36

26:                                               ; preds = %14, %4
  %27 = load i16, ptr %6, align 2, !tbaa !10
  %28 = load ptr, ptr %7, align 8, !tbaa !12
  %29 = load ptr, ptr %9, align 8, !tbaa !90
  %30 = getelementptr inbounds ptr, ptr %29, i64 4
  %31 = load ptr, ptr %30, align 8
  call void %31(ptr noundef nonnull align 8 dereferenceable(680) %9, i16 noundef zeroext %27, ptr noundef %28, i1 noundef zeroext true)
  %32 = load ptr, ptr %8, align 8, !tbaa !14
  call void @_ZN6duckdb10Serializer10WriteValueINSt7__cxx1112basic_stringIcSt11char_traitsIcESaIcEEENS_7FieldIDENS_33CaseInsensitiveStringHashFunctionENS_29CaseInsensitiveStringEqualityEEEvRKSt13unordered_mapIT_T0_T1_T2_SaISt4pairIKSC_SD_EEE(ptr noundef nonnull align 8 dereferenceable(680) %9, ptr noundef nonnull align 8 dereferenceable(56) %32)
  %33 = load ptr, ptr %9, align 8, !tbaa !90
  %34 = getelementptr inbounds ptr, ptr %33, i64 5
  %35 = load ptr, ptr %34, align 8
  call void %35(ptr noundef nonnull align 8 dereferenceable(680) %9, i1 noundef zeroext true)
  br label %36

36:                                               ; preds = %26, %17
  ret void
}

; Function Attrs: mustprogress uwtable
define void @_ZNK6duckdb13ChildFieldIDs9SerializeERNS_10SerializerE(ptr noundef nonnull align 8 dereferenceable(8) %0, ptr noundef nonnull align 8 dereferenceable(680) %1) #4 align 2 {
  %3 = alloca ptr, align 8
  %4 = alloca ptr, align 8
  store ptr %0, ptr %3, align 8, !tbaa !3
  store ptr %1, ptr %4, align 8, !tbaa !8
  %5 = load ptr, ptr %3, align 8
  %6 = load ptr, ptr %4, align 8, !tbaa !8
  %7 = getelementptr inbounds nuw %"struct.duckdb::ChildFieldIDs", ptr %5, i32 0, i32 0
  %8 = call noundef nonnull align 1 ptr @_ZNK6duckdb10unique_ptrISt13unordered_mapINSt7__cxx1112basic_stringIcSt11char_traitsIcESaIcEEENS_7FieldIDENS_33CaseInsensitiveStringHashFunctionENS_29CaseInsensitiveStringEqualityESaISt4pairIKS7_S8_EEESt14default_deleteISF_ELb1EEdeEv(ptr noundef nonnull align 8 dereferenceable(8) %7)
  call void @_ZN6duckdb10Serializer24WritePropertyWithDefaultISt13unordered_mapINSt7__cxx1112basic_stringIcSt11char_traitsIcESaIcEEENS_7FieldIDENS_33CaseInsensitiveStringHashFunctionENS_29CaseInsensitiveStringEqualityESaISt4pairIKS8_S9_EEEEEvtPKcRKT_(ptr noundef nonnull align 8 dereferenceable(680) %6, i16 noundef zeroext 100, ptr noundef @.str, ptr noundef nonnull align 1 %8)
  ret void
}