; Function Attrs: mustprogress uwtable
define void @_ZNK6duckdb13ChildFieldIDs9SerializeERNS_10SerializerE(ptr noundef nonnull align 8 dereferenceable(8) %0, ptr noundef nonnull align 8 dereferenceable(680) %1) local_unnamed_addr #3 align 2 {
  %3 = tail call noundef nonnull align 1 ptr @_ZNK6duckdb10unique_ptrISt13unordered_mapINSt7__cxx1112basic_stringIcSt11char_traitsIcESaIcEEENS_7FieldIDENS_33CaseInsensitiveStringHashFunctionENS_29CaseInsensitiveStringEqualityESaISt4pairIKS7_S8_EEESt14default_deleteISF_ELb1EEdeEv(ptr noundef nonnull align 8 dereferenceable(8) %0)
  %4 = getelementptr inbounds nuw i8, ptr %1, i64 9
  %5 = load i8, ptr %4, align 1, !tbaa !3, !range !79, !noundef !80
  %6 = trunc nuw i8 %5 to i1
  br i1 %6, label %15, label %7

7:                                                ; preds = %2
  %8 = getelementptr inbounds nuw i8, ptr %3, i64 24
  %9 = load i64, ptr %8, align 8, !tbaa !81
  %10 = icmp eq i64 %9, 0
  br i1 %10, label %11, label %15

11:                                               ; preds = %7
  %12 = load ptr, ptr %1, align 8, !tbaa !83
  %13 = getelementptr inbounds nuw i8, ptr %12, i64 32
  %14 = load ptr, ptr %13, align 8
  tail call void %14(ptr noundef nonnull align 8 dereferenceable(680) %1, i16 noundef zeroext 100, ptr noundef nonnull @.str, i1 noundef zeroext false)
  br label %_ZN6duckdb10Serializer24WritePropertyWithDefaultISt13unordered_mapINSt7__cxx1112basic_stringIcSt11char_traitsIcESaIcEEENS_7FieldIDENS_33CaseInsensitiveStringHashFunctionENS_29CaseInsensitiveStringEqualityESaISt4pairIKS8_S9_EEEEEvtPKcRKT_.exit

15:                                               ; preds = %7, %2
  %16 = load ptr, ptr %1, align 8, !tbaa !83
  %17 = getelementptr inbounds nuw i8, ptr %16, i64 32
  %18 = load ptr, ptr %17, align 8
  tail call void %18(ptr noundef nonnull align 8 dereferenceable(680) %1, i16 noundef zeroext 100, ptr noundef nonnull @.str, i1 noundef zeroext true)
  tail call void @_ZN6duckdb10Serializer10WriteValueINSt7__cxx1112basic_stringIcSt11char_traitsIcESaIcEEENS_7FieldIDENS_33CaseInsensitiveStringHashFunctionENS_29CaseInsensitiveStringEqualityEEEvRKSt13unordered_mapIT_T0_T1_T2_SaISt4pairIKSC_SD_EEE(ptr noundef nonnull align 8 dereferenceable(680) %1, ptr noundef nonnull align 8 dereferenceable(56) %3)
  br label %_ZN6duckdb10Serializer24WritePropertyWithDefaultISt13unordered_mapINSt7__cxx1112basic_stringIcSt11char_traitsIcESaIcEEENS_7FieldIDENS_33CaseInsensitiveStringHashFunctionENS_29CaseInsensitiveStringEqualityESaISt4pairIKS8_S9_EEEEEvtPKcRKT_.exit

_ZN6duckdb10Serializer24WritePropertyWithDefaultISt13unordered_mapINSt7__cxx1112basic_stringIcSt11char_traitsIcESaIcEEENS_7FieldIDENS_33CaseInsensitiveStringHashFunctionENS_29CaseInsensitiveStringEqualityESaISt4pairIKS8_S9_EEEEEvtPKcRKT_.exit: ; preds = %11, %15
  %.sink = phi i1 [ false, %11 ], [ true, %15 ]
  %19 = load ptr, ptr %1, align 8, !tbaa !83
  %20 = getelementptr inbounds nuw i8, ptr %19, i64 40
  %21 = load ptr, ptr %20, align 8
  tail call void %21(ptr noundef nonnull align 8 dereferenceable(680) %1, i1 noundef zeroext %.sink)
  ret void
}